target datalayout = "e-m:e-p270:32:32-p271:32:32-p272:64:64-i64:64-i128:128-f80:128-n8:16:32:64-S128"
target triple = "x86_64-pc-linux-gnu"

%struct.AVExpr = type { i32, double, i32, %union.anon, [3 x ptr], ptr, ptr }
%union.anon = type { ptr }
%struct.Parser = type { ptr, i32, ptr, ptr, ptr, ptr, ptr, ptr, ptr, ptr, i32, ptr, ptr, ptr }

@eval_class = internal constant { ptr, ptr, ptr, i32, i32, i32, i32, ptr, ptr, ptr, ptr, i32, [4 x i8] } { ptr @.str.2, ptr @av_default_item_name, ptr null, i32 3932772, i32 80, i32 88, i32 0, ptr null, ptr null, ptr null, ptr null, i32 0, [4 x i8] zeroinitializer }, align 8

; Function Attrs: nounwind uwtable
define double @av_expr_eval(ptr noundef %0, ptr noundef %1, ptr noundef %2) #0 {
  %4 = alloca ptr, align 8
  %5 = alloca ptr, align 8
  %6 = alloca ptr, align 8
  %7 = alloca %struct.Parser, align 8
  store ptr %0, ptr %4, align 8, !tbaa !21
  store ptr %1, ptr %5, align 8, !tbaa !54
  store ptr %2, ptr %6, align 8, !tbaa !26
  call void @llvm.lifetime.start.p0(i64 112, ptr %7) #12
  %8 = getelementptr inbounds nuw %struct.Parser, ptr %7, i32 0, i32 0
  store ptr @eval_class, ptr %8, align 8, !tbaa !29
  %9 = getelementptr inbounds nuw %struct.Parser, ptr %7, i32 0, i32 1
  store i32 0, ptr %9, align 8, !tbaa !34
  %10 = getelementptr i8, ptr %7, i64 12
  call void @llvm.memset.p0.i64(ptr align 4 %10, i8 0, i64 4, i1 false)
  %11 = getelementptr inbounds nuw %struct.Parser, ptr %7, i32 0, i32 2
  store ptr null, ptr %11, align 8, !tbaa !35
  %12 = getelementptr inbounds nuw %struct.Parser, ptr %7, i32 0, i32 3
  %13 = load ptr, ptr %5, align 8, !tbaa !54
  store ptr %13, ptr %12, align 8, !tbaa !55
  %14 = getelementptr inbounds nuw %struct.Parser, ptr %7, i32 0, i32 4
  store ptr null, ptr %14, align 8, !tbaa !36
  %15 = getelementptr inbounds nuw %struct.Parser, ptr %7, i32 0, i32 5
  store ptr null, ptr %15, align 8, !tbaa !37
  %16 = getelementptr inbounds nuw %struct.Parser, ptr %7, i32 0, i32 6
  store ptr null, ptr %16, align 8, !tbaa !38
  %17 = getelementptr inbounds nuw %struct.Parser, ptr %7, i32 0, i32 7
  store ptr null, ptr %17, align 8, !tbaa !39
  %18 = getelementptr inbounds nuw %struct.Parser, ptr %7, i32 0, i32 8
  store ptr null, ptr %18, align 8, !tbaa !40
  %19 = getelementptr inbounds nuw %struct.Parser, ptr %7, i32 0, i32 9
  %20 = load ptr, ptr %6, align 8, !tbaa !26
  store ptr %20, ptr %19, align 8, !tbaa !56
  %21 = getelementptr inbounds nuw %struct.Parser, ptr %7, i32 0, i32 10
  store i32 0, ptr %21, align 8, !tbaa !41
  %22 = getelementptr i8, ptr %7, i64 84
  call void @llvm.memset.p0.i64(ptr align 4 %22, i8 0, i64 4, i1 false)
  %23 = getelementptr inbounds nuw %struct.Parser, ptr %7, i32 0, i32 11
  store ptr null, ptr %23, align 8, !tbaa !42
  %24 = getelementptr inbounds nuw %struct.Parser, ptr %7, i32 0, i32 12
  %25 = load ptr, ptr %4, align 8, !tbaa !21
  %26 = getelementptr inbounds nuw %struct.AVExpr, ptr %25, i32 0, i32 5
  %27 = load ptr, ptr %26, align 8, !tbaa !43
  store ptr %27, ptr %24, align 8, !tbaa !57
  %28 = getelementptr inbounds nuw %struct.Parser, ptr %7, i32 0, i32 13
  %29 = load ptr, ptr %4, align 8, !tbaa !21
  %30 = getelementptr inbounds nuw %struct.AVExpr, ptr %29, i32 0, i32 6
  %31 = load ptr, ptr %30, align 8, !tbaa !45
  store ptr %31, ptr %28, align 8, !tbaa !58
  %32 = load ptr, ptr %4, align 8, !tbaa !21
  %33 = call nsz double @eval_expr(ptr noundef %7, ptr noundef %32)
  call void @llvm.lifetime.end.p0(i64 112, ptr %7) #12
  ret double %33
}