; Function Attrs: nounwind uwtable
define double @av_expr_eval(ptr noundef %0, ptr noundef %1, ptr noundef %2) local_unnamed_addr #3 {
  %4 = alloca %struct.Parser, align 8
  call void @llvm.lifetime.start.p0(i64 112, ptr nonnull %4) #14
  store ptr @eval_class, ptr %4, align 8, !tbaa !19
  %5 = getelementptr inbounds nuw i8, ptr %4, i64 8
  %6 = getelementptr inbounds nuw i8, ptr %4, i64 24
  call void @llvm.memset.p0.i64(ptr noundef nonnull align 8 dereferenceable(16) %5, i8 0, i64 16, i1 false)
  store ptr %1, ptr %6, align 8, !tbaa !45
  %7 = getelementptr inbounds nuw i8, ptr %4, i64 32
  %8 = getelementptr inbounds nuw i8, ptr %4, i64 72
  call void @llvm.memset.p0.i64(ptr noundef nonnull align 8 dereferenceable(40) %7, i8 0, i64 40, i1 false)
  store ptr %2, ptr %8, align 8, !tbaa !46
  %9 = getelementptr inbounds nuw i8, ptr %4, i64 80
  %10 = getelementptr inbounds nuw i8, ptr %4, i64 96
  %11 = getelementptr inbounds nuw i8, ptr %0, i64 56
  call void @llvm.memset.p0.i64(ptr noundef nonnull align 8 dereferenceable(16) %9, i8 0, i64 16, i1 false)
  %12 = load ptr, ptr %11, align 8, !tbaa !36
  store ptr %12, ptr %10, align 8, !tbaa !47
  %13 = getelementptr inbounds nuw i8, ptr %4, i64 104
  %14 = getelementptr inbounds nuw i8, ptr %0, i64 64
  %15 = load ptr, ptr %14, align 8, !tbaa !38
  store ptr %15, ptr %13, align 8, !tbaa !48
  %16 = call nsz fastcc double @eval_expr(ptr noundef %4, ptr noundef %0)
  call void @llvm.lifetime.end.p0(i64 112, ptr nonnull %4) #14
  ret double %16
}